; Function Attrs: mustprogress uwtable
define hidden noundef zeroext i1 @_ZN4cvc58internal6theory11quantifiers5ieval13InstEvaluator4pushENS0_12NodeTemplateILb0EEES6_(ptr noundef nonnull align 8 dereferenceable(1040) %this, ptr nocapture noundef readonly %v, ptr nocapture noundef readonly %s) local_unnamed_addr #3 align 2 personality ptr @__gxx_personality_v0 {
entry:
  %assignedQuants = alloca %"class.std::vector.55", align 8
  %agg.tmp = alloca %"class.cvc5::internal::NodeTemplate.429", align 8
  %agg.tmp2 = alloca %"class.cvc5::internal::NodeTemplate.429", align 8
  call void @llvm.memset.p0.i64(ptr noundef nonnull align 8 dereferenceable(24) %assignedQuants, i8 0, i64 24, i1 false)
  %0 = load ptr, ptr %v, align 8
  store ptr %0, ptr %agg.tmp, align 8
  %1 = load ptr, ptr %s, align 8
  store ptr %1, ptr %agg.tmp2, align 8
  %call = invoke noundef zeroext i1 @_ZN4cvc58internal6theory11quantifiers5ieval13InstEvaluator12pushInternalENS0_12NodeTemplateILb0EEES6_RSt6vectorINS5_ILb1EEESaIS8_EE(ptr noundef nonnull align 8 dereferenceable(1040) %this, ptr noundef nonnull %agg.tmp, ptr noundef nonnull %agg.tmp2, ptr noundef nonnull align 8 dereferenceable(24) %assignedQuants)
          to label %invoke.cont6 unwind label %lpad5

invoke.cont6:                                     ; preds = %entry
  %2 = load ptr, ptr %assignedQuants, align 8
  %_M_finish.i = getelementptr inbounds i8, ptr %assignedQuants, i64 8
  %3 = load ptr, ptr %_M_finish.i, align 8
  %cmp.not3.i.i.i.i = icmp eq ptr %2, %3
  br i1 %cmp.not3.i.i.i.i, label %invoke.cont.i, label %for.body.i.i.i.i

for.body.i.i.i.i:                                 ; preds = %invoke.cont6, %_ZSt8_DestroyIN4cvc58internal12NodeTemplateILb1EEEEvPT_.exit.i.i.i.i
  %__first.addr.04.i.i.i.i = phi ptr [ %incdec.ptr.i.i.i.i, %_ZSt8_DestroyIN4cvc58internal12NodeTemplateILb1EEEEvPT_.exit.i.i.i.i ], [ %2, %invoke.cont6 ]
  %4 = load ptr, ptr %__first.addr.04.i.i.i.i, align 8
  %bf.load.i.i.i.i.i.i.i = load i64, ptr %4, align 8
  %5 = and i64 %bf.load.i.i.i.i.i.i.i, 1152920405095219200
  %cmp.not.i.i.i.i.i.i.i = icmp eq i64 %5, 1152920405095219200
  br i1 %cmp.not.i.i.i.i.i.i.i, label %_ZSt8_DestroyIN4cvc58internal12NodeTemplateILb1EEEEvPT_.exit.i.i.i.i, label %if.then.i.i.i.i.i.i.i

if.then.i.i.i.i.i.i.i:                            ; preds = %for.body.i.i.i.i
  %bf.value.i.i.i.i.i.i.i = add i64 %bf.load.i.i.i.i.i.i.i, 1152920405095219200
  %bf.shl.i.i.i.i.i.i.i = and i64 %bf.value.i.i.i.i.i.i.i, 1152920405095219200
  %bf.clear7.i.i.i.i.i.i.i = and i64 %bf.load.i.i.i.i.i.i.i, -1152920405095219201
  %bf.set.i.i.i.i.i.i.i = or disjoint i64 %bf.shl.i.i.i.i.i.i.i, %bf.clear7.i.i.i.i.i.i.i
  store i64 %bf.set.i.i.i.i.i.i.i, ptr %4, align 8
  %cmp12.i.i.i.i.i.i.i = icmp eq i64 %bf.shl.i.i.i.i.i.i.i, 0
  br i1 %cmp12.i.i.i.i.i.i.i, label %if.then13.i.i.i.i.i.i.i, label %_ZSt8_DestroyIN4cvc58internal12NodeTemplateILb1EEEEvPT_.exit.i.i.i.i

if.then13.i.i.i.i.i.i.i:                          ; preds = %if.then.i.i.i.i.i.i.i
  invoke void @_ZN4cvc58internal4expr9NodeValue15markForDeletionEv(ptr noundef nonnull align 8 dereferenceable(16) %4)
          to label %_ZSt8_DestroyIN4cvc58internal12NodeTemplateILb1EEEEvPT_.exit.i.i.i.i unwind label %terminate.lpad.i.i.i.i.i.i

terminate.lpad.i.i.i.i.i.i:                       ; preds = %if.then13.i.i.i.i.i.i.i
  %6 = landingpad { ptr, i32 }
          catch ptr null
  %7 = extractvalue { ptr, i32 } %6, 0
  call void @__clang_call_terminate(ptr %7) #18
  unreachable

_ZSt8_DestroyIN4cvc58internal12NodeTemplateILb1EEEEvPT_.exit.i.i.i.i: ; preds = %if.then13.i.i.i.i.i.i.i, %if.then.i.i.i.i.i.i.i, %for.body.i.i.i.i
  %incdec.ptr.i.i.i.i = getelementptr inbounds i8, ptr %__first.addr.04.i.i.i.i, i64 8
  %cmp.not.i.i.i.i = icmp eq ptr %incdec.ptr.i.i.i.i, %3
  br i1 %cmp.not.i.i.i.i, label %invoke.contthread-pre-split.i, label %for.body.i.i.i.i, !llvm.loop !4

invoke.contthread-pre-split.i:                    ; preds = %_ZSt8_DestroyIN4cvc58internal12NodeTemplateILb1EEEEvPT_.exit.i.i.i.i
  %.pr.i = load ptr, ptr %assignedQuants, align 8
  br label %invoke.cont.i

invoke.cont.i:                                    ; preds = %invoke.contthread-pre-split.i, %invoke.cont6
  %8 = phi ptr [ %.pr.i, %invoke.contthread-pre-split.i ], [ %2, %invoke.cont6 ]
  %tobool.not.i.i.i = icmp eq ptr %8, null
  br i1 %tobool.not.i.i.i, label %_ZNSt6vectorIN4cvc58internal12NodeTemplateILb1EEESaIS3_EED2Ev.exit, label %if.then.i.i.i

if.then.i.i.i:                                    ; preds = %invoke.cont.i
  call void @_ZdlPv(ptr noundef nonnull %8) #19
  br label %_ZNSt6vectorIN4cvc58internal12NodeTemplateILb1EEESaIS3_EED2Ev.exit

_ZNSt6vectorIN4cvc58internal12NodeTemplateILb1EEESaIS3_EED2Ev.exit: ; preds = %invoke.cont.i, %if.then.i.i.i
  ret i1 %call

lpad5:                                            ; preds = %entry
  %9 = landingpad { ptr, i32 }
          cleanup
  call void @_ZNSt6vectorIN4cvc58internal12NodeTemplateILb1EEESaIS3_EED2Ev(ptr noundef nonnull align 8 dereferenceable(24) %assignedQuants) #17
  resume { ptr, i32 } %9
}